; Function Attrs: mustprogress nofree norecurse nosync nounwind willreturn memory(argmem: readwrite) uwtable
define dso_local void @_ZNK17btCollisionObject18setActivationStateEi(ptr nocapture noundef nonnull align 8 dereferenceable(372) %this, i32 noundef %newState) local_unnamed_addr #2 align 2 {
entry:
  %m_activationState1 = getelementptr inbounds i8, ptr %this, i64 240
  %0 = load i32, ptr %m_activationState1, align 8
  %1 = and i32 %0, -2
  %switch = icmp eq i32 %1, 4
  br i1 %switch, label %if.end, label %if.then

if.then:                                          ; preds = %entry
  store i32 %newState, ptr %m_activationState1, align 8
  br label %if.end

if.end:                                           ; preds = %entry, %if.then
  ret void
}